target datalayout = "e-m:e-p270:32:32-p271:32:32-p272:64:64-i64:64-i128:128-f80:128-n8:16:32:64-S128"
target triple = "x86_64-pc-linux-gnu"

%"class.pxrInternal_v0_24__pxrReserved__::Usd_UsdzResolverCache" = type { %"class.pxrInternal_v0_24__pxrReserved__::ArThreadLocalScopedCache" }
%"class.pxrInternal_v0_24__pxrReserved__::ArThreadLocalScopedCache" = type { %"class.tbb::detail::d1::enumerable_thread_specific" }
%"class.tbb::detail::d1::enumerable_thread_specific" = type { %"class.tbb::detail::d1::ets_base", ptr, %"class.tbb::detail::d1::concurrent_vector" }
%"class.tbb::detail::d1::ets_base" = type { ptr, %"struct.std::atomic", %"struct.std::atomic.0" }
%"struct.std::atomic" = type { %"struct.std::__atomic_base" }
%"struct.std::__atomic_base" = type { ptr }
%"struct.std::atomic.0" = type { %"struct.std::__atomic_base.1" }
%"struct.std::__atomic_base.1" = type { i64 }
%"class.tbb::detail::d1::concurrent_vector" = type { %"class.tbb::detail::d1::segment_table.base", [7 x i8] }
%"class.tbb::detail::d1::segment_table.base" = type <{ ptr, [8 x i8], %"struct.std::atomic.2", [3 x %"struct.std::atomic.4"], %"struct.std::atomic.0", %"struct.std::atomic.0", %"struct.std::atomic.6" }>
%"struct.std::atomic.2" = type { %"struct.std::__atomic_base.3" }
%"struct.std::__atomic_base.3" = type { ptr }
%"struct.std::atomic.4" = type { %"struct.std::__atomic_base.5" }
%"struct.std::__atomic_base.5" = type { ptr }
%"struct.std::atomic.6" = type { %"struct.std::__atomic_base.7" }
%"struct.std::__atomic_base.7" = type { i8 }

@_ZZN32pxrInternal_v0_24__pxrReserved__21Usd_UsdzResolverCache11GetInstanceEvE5cache = internal global %"class.pxrInternal_v0_24__pxrReserved__::Usd_UsdzResolverCache" zeroinitializer, align 8
@_ZGVZN32pxrInternal_v0_24__pxrReserved__21Usd_UsdzResolverCache11GetInstanceEvE5cache = internal global i64 0, align 8
@__dso_handle = external hidden global i8
@_ZN32pxrInternal_v0_24__pxrReserved__21Usd_UsdzResolverCacheC1Ev = unnamed_addr alias void (ptr), ptr @_ZN32pxrInternal_v0_24__pxrReserved__21Usd_UsdzResolverCacheC2Ev

; Function Attrs: mustprogress uwtable
define void @_ZN32pxrInternal_v0_24__pxrReserved__21Usd_UsdzResolverCache15BeginCacheScopeEPNS_7VtValueE(ptr noundef nonnull align 8 dereferenceable(104) %0, ptr noundef %1) #0 align 2 {
  %3 = alloca ptr, align 8
  %4 = alloca ptr, align 8
  store ptr %0, ptr %3, align 8
  store ptr %1, ptr %4, align 8
  %5 = load ptr, ptr %3, align 8
  %6 = getelementptr inbounds nuw %"class.pxrInternal_v0_24__pxrReserved__::Usd_UsdzResolverCache", ptr %5, i32 0, i32 0
  %7 = load ptr, ptr %4, align 8
  call void @_ZN32pxrInternal_v0_24__pxrReserved__24ArThreadLocalScopedCacheINS_21Usd_UsdzResolverCache6_CacheEE15BeginCacheScopeEPNS_7VtValueE(ptr noundef nonnull align 8 dereferenceable(104) %6, ptr noundef %7)
  ret void
}

; Function Attrs: mustprogress uwtable
define noundef nonnull align 8 dereferenceable(104) ptr @_ZN32pxrInternal_v0_24__pxrReserved__21Usd_UsdzResolverCache11GetInstanceEv() #0 align 2 personality ptr @__gxx_personality_v0 {
  %1 = alloca ptr, align 8
  %2 = alloca i32, align 4
  %3 = load atomic i8, ptr @_ZGVZN32pxrInternal_v0_24__pxrReserved__21Usd_UsdzResolverCache11GetInstanceEvE5cache acquire, align 8
  %4 = icmp eq i8 %3, 0
  br i1 %4, label %5, label %11, !prof !4

5:                                                ; preds = %0
  %6 = call i32 @__cxa_guard_acquire(ptr @_ZGVZN32pxrInternal_v0_24__pxrReserved__21Usd_UsdzResolverCache11GetInstanceEvE5cache) #1
  %7 = icmp ne i32 %6, 0
  br i1 %7, label %8, label %11

8:                                                ; preds = %5
  invoke void @_ZN32pxrInternal_v0_24__pxrReserved__21Usd_UsdzResolverCacheC1Ev(ptr noundef nonnull align 8 dereferenceable(104) @_ZZN32pxrInternal_v0_24__pxrReserved__21Usd_UsdzResolverCache11GetInstanceEvE5cache)
          to label %9 unwind label %12

9:                                                ; preds = %8
  %10 = call i32 @__cxa_atexit(ptr @_ZN32pxrInternal_v0_24__pxrReserved__21Usd_UsdzResolverCacheD2Ev, ptr @_ZZN32pxrInternal_v0_24__pxrReserved__21Usd_UsdzResolverCache11GetInstanceEvE5cache, ptr @__dso_handle) #1
  call void @__cxa_guard_release(ptr @_ZGVZN32pxrInternal_v0_24__pxrReserved__21Usd_UsdzResolverCache11GetInstanceEvE5cache) #1
  br label %11

11:                                               ; preds = %9, %5, %0
  ret ptr @_ZZN32pxrInternal_v0_24__pxrReserved__21Usd_UsdzResolverCache11GetInstanceEvE5cache

12:                                               ; preds = %8
  %13 = landingpad { ptr, i32 }
          cleanup
  %14 = extractvalue { ptr, i32 } %13, 0
  store ptr %14, ptr %1, align 8
  %15 = extractvalue { ptr, i32 } %13, 1
  store i32 %15, ptr %2, align 4
  call void @__cxa_guard_abort(ptr @_ZGVZN32pxrInternal_v0_24__pxrReserved__21Usd_UsdzResolverCache11GetInstanceEvE5cache) #1
  br label %16

16:                                               ; preds = %12
  %17 = load ptr, ptr %1, align 8
  %18 = load i32, ptr %2, align 4
  %19 = insertvalue { ptr, i32 } poison, ptr %17, 0
  %20 = insertvalue { ptr, i32 } %19, i32 %18, 1
  resume { ptr, i32 } %20
}

; Function Attrs: mustprogress uwtable
define void @_ZN32pxrInternal_v0_24__pxrReserved__16Usd_UsdzResolver15BeginCacheScopeEPNS_7VtValueE(ptr noundef nonnull align 8 dereferenceable(8) %0, ptr noundef %1) unnamed_addr #0 align 2 {
  %3 = alloca ptr, align 8
  %4 = alloca ptr, align 8
  store ptr %0, ptr %3, align 8
  store ptr %1, ptr %4, align 8
  %5 = call noundef nonnull align 8 dereferenceable(104) ptr @_ZN32pxrInternal_v0_24__pxrReserved__21Usd_UsdzResolverCache11GetInstanceEv()
  %6 = load ptr, ptr %4, align 8
  call void @_ZN32pxrInternal_v0_24__pxrReserved__21Usd_UsdzResolverCache15BeginCacheScopeEPNS_7VtValueE(ptr noundef nonnull align 8 dereferenceable(104) %5, ptr noundef %6)
  ret void
}